target datalayout = "e-m:e-p270:32:32-p271:32:32-p272:64:64-i64:64-i128:128-f80:128-n8:16:32:64-S128"
target triple = "x86_64-pc-linux-gnu"

%struct.ossl_decoder_instance_st = type { ptr, ptr, ptr, ptr, i32, i8 }
%struct.ossl_decoder_st = type { %struct.ossl_endecode_base_st, ptr, ptr, ptr, ptr, ptr, ptr, ptr, ptr, ptr }
%struct.ossl_endecode_base_st = type { ptr, i32, ptr, ptr, ptr, %struct.CRYPTO_REF_COUNT }
%struct.CRYPTO_REF_COUNT = type { i32 }

@.str = private unnamed_addr constant [46 x i8] c"../openssl/crypto/encode_decode/decoder_lib.c\00", align 1
@__func__.ossl_decoder_instance_new = private unnamed_addr constant [26 x i8] c"ossl_decoder_instance_new\00", align 1
@.str.8 = private unnamed_addr constant [50 x i8] c"there are no property definitions with decoder %s\00", align 1
@.str.9 = private unnamed_addr constant [6 x i8] c"input\00", align 1
@.str.10 = private unnamed_addr constant [74 x i8] c"the mandatory 'input' property is missing for decoder %s (properties: %s)\00", align 1
@.str.11 = private unnamed_addr constant [10 x i8] c"structure\00", align 1

; Function Attrs: nounwind uwtable
define void @ossl_decoder_instance_free(ptr noundef %0) #0 {
  %2 = alloca ptr, align 8
  store ptr %0, ptr %2, align 8, !tbaa !30
  %3 = load ptr, ptr %2, align 8, !tbaa !30
  %4 = icmp ne ptr %3, null
  br i1 %4, label %5, label %28

5:                                                ; preds = %1
  %6 = load ptr, ptr %2, align 8, !tbaa !30
  %7 = getelementptr inbounds nuw %struct.ossl_decoder_instance_st, ptr %6, i32 0, i32 0
  %8 = load ptr, ptr %7, align 8, !tbaa !70
  %9 = icmp ne ptr %8, null
  br i1 %9, label %10, label %19

10:                                               ; preds = %5
  %11 = load ptr, ptr %2, align 8, !tbaa !30
  %12 = getelementptr inbounds nuw %struct.ossl_decoder_instance_st, ptr %11, i32 0, i32 0
  %13 = load ptr, ptr %12, align 8, !tbaa !70
  %14 = getelementptr inbounds nuw %struct.ossl_decoder_st, ptr %13, i32 0, i32 2
  %15 = load ptr, ptr %14, align 8, !tbaa !72
  %16 = load ptr, ptr %2, align 8, !tbaa !30
  %17 = getelementptr inbounds nuw %struct.ossl_decoder_instance_st, ptr %16, i32 0, i32 1
  %18 = load ptr, ptr %17, align 8, !tbaa !71
  call void %15(ptr noundef %18)
  br label %19

19:                                               ; preds = %10, %5
  %20 = load ptr, ptr %2, align 8, !tbaa !30
  %21 = getelementptr inbounds nuw %struct.ossl_decoder_instance_st, ptr %20, i32 0, i32 1
  store ptr null, ptr %21, align 8, !tbaa !71
  %22 = load ptr, ptr %2, align 8, !tbaa !30
  %23 = getelementptr inbounds nuw %struct.ossl_decoder_instance_st, ptr %22, i32 0, i32 0
  %24 = load ptr, ptr %23, align 8, !tbaa !70
  call void @OSSL_DECODER_free(ptr noundef %24)
  %25 = load ptr, ptr %2, align 8, !tbaa !30
  %26 = getelementptr inbounds nuw %struct.ossl_decoder_instance_st, ptr %25, i32 0, i32 0
  store ptr null, ptr %26, align 8, !tbaa !70
  %27 = load ptr, ptr %2, align 8, !tbaa !30
  call void @CRYPTO_free(ptr noundef %27, ptr noundef @.str, i32 noundef 280)
  br label %28

28:                                               ; preds = %19, %1
  ret void
}

; Function Attrs: nounwind uwtable
define ptr @ossl_decoder_instance_new(ptr noundef %0, ptr noundef %1) #0 {
  %3 = alloca ptr, align 8
  %4 = alloca ptr, align 8
  %5 = alloca ptr, align 8
  %6 = alloca ptr, align 8
  %7 = alloca ptr, align 8
  %8 = alloca ptr, align 8
  %9 = alloca ptr, align 8
  %10 = alloca ptr, align 8
  %11 = alloca i32, align 4
  store ptr %0, ptr %4, align 8, !tbaa !32
  store ptr %1, ptr %5, align 8, !tbaa !27
  call void @llvm.lifetime.start.p0(i64 8, ptr %6) #7
  store ptr null, ptr %6, align 8, !tbaa !30
  call void @llvm.lifetime.start.p0(i64 8, ptr %7) #7
  call void @llvm.lifetime.start.p0(i64 8, ptr %8) #7
  call void @llvm.lifetime.start.p0(i64 8, ptr %9) #7
  call void @llvm.lifetime.start.p0(i64 8, ptr %10) #7
  %12 = load ptr, ptr %4, align 8, !tbaa !32
  %13 = icmp ne ptr %12, null
  %14 = zext i1 %13 to i32
  %15 = icmp ne i32 %14, 0
  %16 = xor i1 %15, true
  %17 = xor i1 %16, true
  %18 = zext i1 %17 to i32
  %19 = sext i32 %18 to i64
  %20 = call i64 @llvm.expect.i64(i64 %19, i64 1)
  %21 = icmp ne i64 %20, 0
  br i1 %21, label %23, label %22

22:                                               ; preds = %2
  call void @ERR_new()
  call void @ERR_set_debug(ptr noundef @.str, i32 noundef 223, ptr noundef @__func__.ossl_decoder_instance_new)
  call void (i32, i32, ptr, ...) @ERR_set_error(i32 noundef 60, i32 noundef 786690, ptr noundef null)
  store ptr null, ptr %3, align 8
  store i32 1, ptr %11, align 4
  br label %86

23:                                               ; preds = %2
  %24 = call noalias ptr @CRYPTO_zalloc(i64 noundef 40, ptr noundef @.str, i32 noundef 227)
  store ptr %24, ptr %6, align 8, !tbaa !30
  %25 = icmp eq ptr %24, null
  br i1 %25, label %26, label %27

26:                                               ; preds = %23
  store ptr null, ptr %3, align 8
  store i32 1, ptr %11, align 4
  br label %86

27:                                               ; preds = %23
  %28 = load ptr, ptr %4, align 8, !tbaa !32
  %29 = call ptr @OSSL_DECODER_get0_provider(ptr noundef %28)
  store ptr %29, ptr %7, align 8, !tbaa !60
  %30 = load ptr, ptr %7, align 8, !tbaa !60
  %31 = call ptr @ossl_provider_libctx(ptr noundef %30)
  store ptr %31, ptr %8, align 8, !tbaa !61
  %32 = load ptr, ptr %4, align 8, !tbaa !32
  %33 = call ptr @ossl_decoder_parsed_properties(ptr noundef %32)
  store ptr %33, ptr %9, align 8, !tbaa !63
  %34 = load ptr, ptr %9, align 8, !tbaa !63
  %35 = icmp eq ptr %34, null
  br i1 %35, label %36, label %39

36:                                               ; preds = %27
  call void @ERR_new()
  call void @ERR_set_debug(ptr noundef @.str, i32 noundef 234, ptr noundef @__func__.ossl_decoder_instance_new)
  %37 = load ptr, ptr %4, align 8, !tbaa !32
  %38 = call ptr @OSSL_DECODER_get0_name(ptr noundef %37)
  call void (i32, i32, ptr, ...) @ERR_set_error(i32 noundef 60, i32 noundef 524558, ptr noundef @.str.8, ptr noundef %38)
  br label %84

39:                                               ; preds = %27
  %40 = load ptr, ptr %9, align 8, !tbaa !63
  %41 = load ptr, ptr %8, align 8, !tbaa !61
  %42 = call ptr @ossl_property_find_property(ptr noundef %40, ptr noundef %41, ptr noundef @.str.9)
  store ptr %42, ptr %10, align 8, !tbaa !64
  %43 = load ptr, ptr %8, align 8, !tbaa !61
  %44 = load ptr, ptr %10, align 8, !tbaa !64
  %45 = call ptr @ossl_property_get_string_value(ptr noundef %43, ptr noundef %44)
  %46 = load ptr, ptr %6, align 8, !tbaa !30
  %47 = getelementptr inbounds nuw %struct.ossl_decoder_instance_st, ptr %46, i32 0, i32 2
  store ptr %45, ptr %47, align 8, !tbaa !66
  %48 = load ptr, ptr %6, align 8, !tbaa !30
  %49 = getelementptr inbounds nuw %struct.ossl_decoder_instance_st, ptr %48, i32 0, i32 4
  store i32 0, ptr %49, align 8, !tbaa !68
  %50 = load ptr, ptr %6, align 8, !tbaa !30
  %51 = getelementptr inbounds nuw %struct.ossl_decoder_instance_st, ptr %50, i32 0, i32 2
  %52 = load ptr, ptr %51, align 8, !tbaa !66
  %53 = icmp eq ptr %52, null
  br i1 %53, label %54, label %59

54:                                               ; preds = %39
  call void @ERR_new()
  call void @ERR_set_debug(ptr noundef @.str, i32 noundef 245, ptr noundef @__func__.ossl_decoder_instance_new)
  %55 = load ptr, ptr %4, align 8, !tbaa !32
  %56 = call ptr @OSSL_DECODER_get0_name(ptr noundef %55)
  %57 = load ptr, ptr %4, align 8, !tbaa !32
  %58 = call ptr @OSSL_DECODER_get0_properties(ptr noundef %57)
  call void (i32, i32, ptr, ...) @ERR_set_error(i32 noundef 60, i32 noundef 524558, ptr noundef @.str.10, ptr noundef %56, ptr noundef %58)
  br label %84

59:                                               ; preds = %39
  %60 = load ptr, ptr %9, align 8, !tbaa !63
  %61 = load ptr, ptr %8, align 8, !tbaa !61
  %62 = call ptr @ossl_property_find_property(ptr noundef %60, ptr noundef %61, ptr noundef @.str.11)
  store ptr %62, ptr %10, align 8, !tbaa !64
  %63 = load ptr, ptr %10, align 8, !tbaa !64
  %64 = icmp ne ptr %63, null
  br i1 %64, label %65, label %71

65:                                               ; preds = %59
  %66 = load ptr, ptr %8, align 8, !tbaa !61
  %67 = load ptr, ptr %10, align 8, !tbaa !64
  %68 = call ptr @ossl_property_get_string_value(ptr noundef %66, ptr noundef %67)
  %69 = load ptr, ptr %6, align 8, !tbaa !30
  %70 = getelementptr inbounds nuw %struct.ossl_decoder_instance_st, ptr %69, i32 0, i32 3
  store ptr %68, ptr %70, align 8, !tbaa !69
  br label %71

71:                                               ; preds = %65, %59
  %72 = load ptr, ptr %4, align 8, !tbaa !32
  %73 = call i32 @OSSL_DECODER_up_ref(ptr noundef %72)
  %74 = icmp ne i32 %73, 0
  br i1 %74, label %76, label %75

75:                                               ; preds = %71
  call void @ERR_new()
  call void @ERR_set_debug(ptr noundef @.str, i32 noundef 261, ptr noundef @__func__.ossl_decoder_instance_new)
  call void (i32, i32, ptr, ...) @ERR_set_error(i32 noundef 60, i32 noundef 786691, ptr noundef null)
  br label %84

76:                                               ; preds = %71
  %77 = load ptr, ptr %4, align 8, !tbaa !32
  %78 = load ptr, ptr %6, align 8, !tbaa !30
  %79 = getelementptr inbounds nuw %struct.ossl_decoder_instance_st, ptr %78, i32 0, i32 0
  store ptr %77, ptr %79, align 8, !tbaa !70
  %80 = load ptr, ptr %5, align 8, !tbaa !27
  %81 = load ptr, ptr %6, align 8, !tbaa !30
  %82 = getelementptr inbounds nuw %struct.ossl_decoder_instance_st, ptr %81, i32 0, i32 1
  store ptr %80, ptr %82, align 8, !tbaa !71
  %83 = load ptr, ptr %6, align 8, !tbaa !30
  store ptr %83, ptr %3, align 8
  store i32 1, ptr %11, align 4
  br label %86

84:                                               ; preds = %75, %54, %36
  %85 = load ptr, ptr %6, align 8, !tbaa !30
  call void @ossl_decoder_instance_free(ptr noundef %85)
  store ptr null, ptr %3, align 8
  store i32 1, ptr %11, align 4
  br label %86

86:                                               ; preds = %84, %76, %26, %22
  call void @llvm.lifetime.end.p0(i64 8, ptr %10) #7
  call void @llvm.lifetime.end.p0(i64 8, ptr %9) #7
  call void @llvm.lifetime.end.p0(i64 8, ptr %8) #7
  call void @llvm.lifetime.end.p0(i64 8, ptr %7) #7
  call void @llvm.lifetime.end.p0(i64 8, ptr %6) #7
  %87 = load ptr, ptr %3, align 8
  ret ptr %87
}