; Function Attrs: nounwind uwtable
define ptr @ossl_decoder_instance_new(ptr noundef %0, ptr noundef %1) local_unnamed_addr #0 {
  %.not = icmp eq ptr %0, null
  br i1 %.not, label %3, label %4, !prof !46

3:                                                ; preds = %2
  tail call void @ERR_new() #8
  tail call void @ERR_set_debug(ptr noundef nonnull @.str, i32 noundef 223, ptr noundef nonnull @__func__.ossl_decoder_instance_new) #8
  tail call void (i32, i32, ptr, ...) @ERR_set_error(i32 noundef 60, i32 noundef 786690, ptr noundef null) #8
  br label %41

4:                                                ; preds = %2
  %5 = tail call noalias ptr @CRYPTO_zalloc(i64 noundef 40, ptr noundef nonnull @.str, i32 noundef 227) #8
  %6 = icmp eq ptr %5, null
  br i1 %6, label %41, label %7

7:                                                ; preds = %4
  %8 = tail call ptr @OSSL_DECODER_get0_provider(ptr noundef nonnull %0) #8
  %9 = tail call ptr @ossl_provider_libctx(ptr noundef %8) #8
  %10 = tail call ptr @ossl_decoder_parsed_properties(ptr noundef nonnull %0) #8
  %11 = icmp eq ptr %10, null
  br i1 %11, label %12, label %14

12:                                               ; preds = %7
  tail call void @ERR_new() #8
  tail call void @ERR_set_debug(ptr noundef nonnull @.str, i32 noundef 234, ptr noundef nonnull @__func__.ossl_decoder_instance_new) #8
  %13 = tail call ptr @OSSL_DECODER_get0_name(ptr noundef nonnull %0) #8
  tail call void (i32, i32, ptr, ...) @ERR_set_error(i32 noundef 60, i32 noundef 524558, ptr noundef nonnull @.str.8, ptr noundef %13) #8
  br label %33

14:                                               ; preds = %7
  %15 = tail call ptr @ossl_property_find_property(ptr noundef nonnull %10, ptr noundef %9, ptr noundef nonnull @.str.9) #8
  %16 = tail call ptr @ossl_property_get_string_value(ptr noundef %9, ptr noundef %15) #8
  %17 = getelementptr inbounds nuw i8, ptr %5, i64 16
  store ptr %16, ptr %17, align 8, !tbaa !33
  %18 = getelementptr inbounds nuw i8, ptr %5, i64 32
  store i32 0, ptr %18, align 8, !tbaa !47
  %19 = icmp eq ptr %16, null
  br i1 %19, label %20, label %23

20:                                               ; preds = %14
  tail call void @ERR_new() #8
  tail call void @ERR_set_debug(ptr noundef nonnull @.str, i32 noundef 245, ptr noundef nonnull @__func__.ossl_decoder_instance_new) #8
  %21 = tail call ptr @OSSL_DECODER_get0_name(ptr noundef nonnull %0) #8
  %22 = tail call ptr @OSSL_DECODER_get0_properties(ptr noundef nonnull %0) #8
  tail call void (i32, i32, ptr, ...) @ERR_set_error(i32 noundef 60, i32 noundef 524558, ptr noundef nonnull @.str.10, ptr noundef %21, ptr noundef %22) #8
  br label %33

23:                                               ; preds = %14
  %24 = tail call ptr @ossl_property_find_property(ptr noundef nonnull %10, ptr noundef %9, ptr noundef nonnull @.str.11) #8
  %.not33 = icmp eq ptr %24, null
  br i1 %.not33, label %28, label %25

25:                                               ; preds = %23
  %26 = tail call ptr @ossl_property_get_string_value(ptr noundef %9, ptr noundef nonnull %24) #8
  %27 = getelementptr inbounds nuw i8, ptr %5, i64 24
  store ptr %26, ptr %27, align 8, !tbaa !34
  br label %28

28:                                               ; preds = %25, %23
  %29 = tail call i32 @OSSL_DECODER_up_ref(ptr noundef nonnull %0) #8
  %.not34 = icmp eq i32 %29, 0
  br i1 %.not34, label %30, label %31

30:                                               ; preds = %28
  tail call void @ERR_new() #8
  tail call void @ERR_set_debug(ptr noundef nonnull @.str, i32 noundef 261, ptr noundef nonnull @__func__.ossl_decoder_instance_new) #8
  tail call void (i32, i32, ptr, ...) @ERR_set_error(i32 noundef 60, i32 noundef 786691, ptr noundef null) #8
  br label %33

31:                                               ; preds = %28
  store ptr %0, ptr %5, align 8, !tbaa !23
  %32 = getelementptr inbounds nuw i8, ptr %5, i64 8
  store ptr %1, ptr %32, align 8, !tbaa !32
  br label %41

33:                                               ; preds = %12, %20, %30
  %34 = load ptr, ptr %5, align 8, !tbaa !23
  %.not9.i = icmp eq ptr %34, null
  br i1 %.not9.i, label %ossl_decoder_instance_free.exit, label %35

35:                                               ; preds = %33
  %36 = getelementptr inbounds nuw i8, ptr %34, i64 56
  %37 = load ptr, ptr %36, align 8, !tbaa !48
  %38 = getelementptr inbounds nuw i8, ptr %5, i64 8
  %39 = load ptr, ptr %38, align 8, !tbaa !32
  tail call void %37(ptr noundef %39) #8
  br label %ossl_decoder_instance_free.exit

ossl_decoder_instance_free.exit:                  ; preds = %33, %35
  %40 = getelementptr inbounds nuw i8, ptr %5, i64 8
  store ptr null, ptr %40, align 8, !tbaa !32
  tail call void @OSSL_DECODER_free(ptr noundef %34) #8
  store ptr null, ptr %5, align 8, !tbaa !23
  tail call void @CRYPTO_free(ptr noundef nonnull %5, ptr noundef nonnull @.str, i32 noundef 280) #8
  br label %41

41:                                               ; preds = %4, %ossl_decoder_instance_free.exit, %31, %3
  %.0 = phi ptr [ null, %ossl_decoder_instance_free.exit ], [ %5, %31 ], [ null, %3 ], [ null, %4 ]
  ret ptr %.0
}